target datalayout = "e-m:e-p270:32:32-p271:32:32-p272:64:64-i64:64-i128:128-f80:128-n8:16:32:64-S128"
target triple = "x86_64-pc-linux-gnu"

@.str.93 = private unnamed_addr constant [11 x i8] c"POSIX_F_OK\00", align 1
@.str.94 = private unnamed_addr constant [11 x i8] c"POSIX_X_OK\00", align 1
@.str.95 = private unnamed_addr constant [11 x i8] c"POSIX_W_OK\00", align 1
@.str.96 = private unnamed_addr constant [11 x i8] c"POSIX_R_OK\00", align 1
@.str.97 = private unnamed_addr constant [14 x i8] c"POSIX_S_IFREG\00", align 1
@.str.98 = private unnamed_addr constant [14 x i8] c"POSIX_S_IFCHR\00", align 1
@.str.99 = private unnamed_addr constant [14 x i8] c"POSIX_S_IFBLK\00", align 1
@.str.100 = private unnamed_addr constant [14 x i8] c"POSIX_S_IFIFO\00", align 1
@.str.101 = private unnamed_addr constant [15 x i8] c"POSIX_S_IFSOCK\00", align 1
@.str.102 = private unnamed_addr constant [16 x i8] c"POSIX_RLIMIT_AS\00", align 1
@.str.103 = private unnamed_addr constant [18 x i8] c"POSIX_RLIMIT_CORE\00", align 1
@.str.104 = private unnamed_addr constant [17 x i8] c"POSIX_RLIMIT_CPU\00", align 1
@.str.105 = private unnamed_addr constant [18 x i8] c"POSIX_RLIMIT_DATA\00", align 1
@.str.106 = private unnamed_addr constant [19 x i8] c"POSIX_RLIMIT_FSIZE\00", align 1
@.str.107 = private unnamed_addr constant [19 x i8] c"POSIX_RLIMIT_LOCKS\00", align 1
@.str.108 = private unnamed_addr constant [21 x i8] c"POSIX_RLIMIT_MEMLOCK\00", align 1
@.str.109 = private unnamed_addr constant [22 x i8] c"POSIX_RLIMIT_MSGQUEUE\00", align 1
@.str.110 = private unnamed_addr constant [18 x i8] c"POSIX_RLIMIT_NICE\00", align 1
@.str.111 = private unnamed_addr constant [20 x i8] c"POSIX_RLIMIT_NOFILE\00", align 1
@.str.112 = private unnamed_addr constant [19 x i8] c"POSIX_RLIMIT_NPROC\00", align 1
@.str.113 = private unnamed_addr constant [17 x i8] c"POSIX_RLIMIT_RSS\00", align 1
@.str.114 = private unnamed_addr constant [20 x i8] c"POSIX_RLIMIT_RTPRIO\00", align 1
@.str.115 = private unnamed_addr constant [20 x i8] c"POSIX_RLIMIT_RTTIME\00", align 1
@.str.116 = private unnamed_addr constant [24 x i8] c"POSIX_RLIMIT_SIGPENDING\00", align 1
@.str.117 = private unnamed_addr constant [19 x i8] c"POSIX_RLIMIT_STACK\00", align 1
@.str.118 = private unnamed_addr constant [22 x i8] c"POSIX_RLIMIT_INFINITY\00", align 1
@.str.119 = private unnamed_addr constant [17 x i8] c"POSIX_SC_ARG_MAX\00", align 1
@.str.120 = private unnamed_addr constant [19 x i8] c"POSIX_SC_CHILD_MAX\00", align 1
@.str.121 = private unnamed_addr constant [17 x i8] c"POSIX_SC_CLK_TCK\00", align 1
@.str.122 = private unnamed_addr constant [18 x i8] c"POSIX_SC_PAGESIZE\00", align 1
@.str.123 = private unnamed_addr constant [26 x i8] c"POSIX_SC_NPROCESSORS_CONF\00", align 1
@.str.124 = private unnamed_addr constant [26 x i8] c"POSIX_SC_NPROCESSORS_ONLN\00", align 1
@.str.125 = private unnamed_addr constant [18 x i8] c"POSIX_PC_LINK_MAX\00", align 1
@.str.126 = private unnamed_addr constant [19 x i8] c"POSIX_PC_MAX_CANON\00", align 1
@.str.127 = private unnamed_addr constant [19 x i8] c"POSIX_PC_MAX_INPUT\00", align 1
@.str.128 = private unnamed_addr constant [18 x i8] c"POSIX_PC_NAME_MAX\00", align 1
@.str.129 = private unnamed_addr constant [18 x i8] c"POSIX_PC_PATH_MAX\00", align 1
@.str.130 = private unnamed_addr constant [18 x i8] c"POSIX_PC_PIPE_BUF\00", align 1
@.str.131 = private unnamed_addr constant [26 x i8] c"POSIX_PC_CHOWN_RESTRICTED\00", align 1
@.str.132 = private unnamed_addr constant [18 x i8] c"POSIX_PC_NO_TRUNC\00", align 1
@.str.133 = private unnamed_addr constant [24 x i8] c"POSIX_PC_ALLOC_SIZE_MIN\00", align 1
@.str.134 = private unnamed_addr constant [21 x i8] c"POSIX_PC_SYMLINK_MAX\00", align 1

; Function Attrs: nounwind uwtable
define internal void @register_posix_symbols(i32 noundef %0) #0 {
  %2 = alloca i32, align 4
  store i32 %0, ptr %2, align 4
  %3 = load i32, ptr %2, align 4
  call void @zend_register_long_constant(ptr noundef @.str.93, i64 noundef 10, i64 noundef 0, i32 noundef 1, i32 noundef %3)
  %4 = load i32, ptr %2, align 4
  call void @zend_register_long_constant(ptr noundef @.str.94, i64 noundef 10, i64 noundef 1, i32 noundef 1, i32 noundef %4)
  %5 = load i32, ptr %2, align 4
  call void @zend_register_long_constant(ptr noundef @.str.95, i64 noundef 10, i64 noundef 2, i32 noundef 1, i32 noundef %5)
  %6 = load i32, ptr %2, align 4
  call void @zend_register_long_constant(ptr noundef @.str.96, i64 noundef 10, i64 noundef 4, i32 noundef 1, i32 noundef %6)
  %7 = load i32, ptr %2, align 4
  call void @zend_register_long_constant(ptr noundef @.str.97, i64 noundef 13, i64 noundef 32768, i32 noundef 1, i32 noundef %7)
  %8 = load i32, ptr %2, align 4
  call void @zend_register_long_constant(ptr noundef @.str.98, i64 noundef 13, i64 noundef 8192, i32 noundef 1, i32 noundef %8)
  %9 = load i32, ptr %2, align 4
  call void @zend_register_long_constant(ptr noundef @.str.99, i64 noundef 13, i64 noundef 24576, i32 noundef 1, i32 noundef %9)
  %10 = load i32, ptr %2, align 4
  call void @zend_register_long_constant(ptr noundef @.str.100, i64 noundef 13, i64 noundef 4096, i32 noundef 1, i32 noundef %10)
  %11 = load i32, ptr %2, align 4
  call void @zend_register_long_constant(ptr noundef @.str.101, i64 noundef 14, i64 noundef 49152, i32 noundef 1, i32 noundef %11)
  %12 = load i32, ptr %2, align 4
  call void @zend_register_long_constant(ptr noundef @.str.102, i64 noundef 15, i64 noundef 9, i32 noundef 1, i32 noundef %12)
  %13 = load i32, ptr %2, align 4
  call void @zend_register_long_constant(ptr noundef @.str.103, i64 noundef 17, i64 noundef 4, i32 noundef 1, i32 noundef %13)
  %14 = load i32, ptr %2, align 4
  call void @zend_register_long_constant(ptr noundef @.str.104, i64 noundef 16, i64 noundef 0, i32 noundef 1, i32 noundef %14)
  %15 = load i32, ptr %2, align 4
  call void @zend_register_long_constant(ptr noundef @.str.105, i64 noundef 17, i64 noundef 2, i32 noundef 1, i32 noundef %15)
  %16 = load i32, ptr %2, align 4
  call void @zend_register_long_constant(ptr noundef @.str.106, i64 noundef 18, i64 noundef 1, i32 noundef 1, i32 noundef %16)
  %17 = load i32, ptr %2, align 4
  call void @zend_register_long_constant(ptr noundef @.str.107, i64 noundef 18, i64 noundef 10, i32 noundef 1, i32 noundef %17)
  %18 = load i32, ptr %2, align 4
  call void @zend_register_long_constant(ptr noundef @.str.108, i64 noundef 20, i64 noundef 8, i32 noundef 1, i32 noundef %18)
  %19 = load i32, ptr %2, align 4
  call void @zend_register_long_constant(ptr noundef @.str.109, i64 noundef 21, i64 noundef 12, i32 noundef 1, i32 noundef %19)
  %20 = load i32, ptr %2, align 4
  call void @zend_register_long_constant(ptr noundef @.str.110, i64 noundef 17, i64 noundef 13, i32 noundef 1, i32 noundef %20)
  %21 = load i32, ptr %2, align 4
  call void @zend_register_long_constant(ptr noundef @.str.111, i64 noundef 19, i64 noundef 7, i32 noundef 1, i32 noundef %21)
  %22 = load i32, ptr %2, align 4
  call void @zend_register_long_constant(ptr noundef @.str.112, i64 noundef 18, i64 noundef 6, i32 noundef 1, i32 noundef %22)
  %23 = load i32, ptr %2, align 4
  call void @zend_register_long_constant(ptr noundef @.str.113, i64 noundef 16, i64 noundef 5, i32 noundef 1, i32 noundef %23)
  %24 = load i32, ptr %2, align 4
  call void @zend_register_long_constant(ptr noundef @.str.114, i64 noundef 19, i64 noundef 14, i32 noundef 1, i32 noundef %24)
  %25 = load i32, ptr %2, align 4
  call void @zend_register_long_constant(ptr noundef @.str.115, i64 noundef 19, i64 noundef 15, i32 noundef 1, i32 noundef %25)
  %26 = load i32, ptr %2, align 4
  call void @zend_register_long_constant(ptr noundef @.str.116, i64 noundef 23, i64 noundef 11, i32 noundef 1, i32 noundef %26)
  %27 = load i32, ptr %2, align 4
  call void @zend_register_long_constant(ptr noundef @.str.117, i64 noundef 18, i64 noundef 3, i32 noundef 1, i32 noundef %27)
  %28 = load i32, ptr %2, align 4
  call void @zend_register_long_constant(ptr noundef @.str.118, i64 noundef 21, i64 noundef -1, i32 noundef 1, i32 noundef %28)
  %29 = load i32, ptr %2, align 4
  call void @zend_register_long_constant(ptr noundef @.str.119, i64 noundef 16, i64 noundef 0, i32 noundef 1, i32 noundef %29)
  %30 = load i32, ptr %2, align 4
  call void @zend_register_long_constant(ptr noundef @.str.120, i64 noundef 18, i64 noundef 1, i32 noundef 1, i32 noundef %30)
  %31 = load i32, ptr %2, align 4
  call void @zend_register_long_constant(ptr noundef @.str.121, i64 noundef 16, i64 noundef 2, i32 noundef 1, i32 noundef %31)
  %32 = load i32, ptr %2, align 4
  call void @zend_register_long_constant(ptr noundef @.str.122, i64 noundef 17, i64 noundef 30, i32 noundef 1, i32 noundef %32)
  %33 = load i32, ptr %2, align 4
  call void @zend_register_long_constant(ptr noundef @.str.123, i64 noundef 25, i64 noundef 83, i32 noundef 1, i32 noundef %33)
  %34 = load i32, ptr %2, align 4
  call void @zend_register_long_constant(ptr noundef @.str.124, i64 noundef 25, i64 noundef 84, i32 noundef 1, i32 noundef %34)
  %35 = load i32, ptr %2, align 4
  call void @zend_register_long_constant(ptr noundef @.str.125, i64 noundef 17, i64 noundef 0, i32 noundef 1, i32 noundef %35)
  %36 = load i32, ptr %2, align 4
  call void @zend_register_long_constant(ptr noundef @.str.126, i64 noundef 18, i64 noundef 1, i32 noundef 1, i32 noundef %36)
  %37 = load i32, ptr %2, align 4
  call void @zend_register_long_constant(ptr noundef @.str.127, i64 noundef 18, i64 noundef 2, i32 noundef 1, i32 noundef %37)
  %38 = load i32, ptr %2, align 4
  call void @zend_register_long_constant(ptr noundef @.str.128, i64 noundef 17, i64 noundef 3, i32 noundef 1, i32 noundef %38)
  %39 = load i32, ptr %2, align 4
  call void @zend_register_long_constant(ptr noundef @.str.129, i64 noundef 17, i64 noundef 4, i32 noundef 1, i32 noundef %39)
  %40 = load i32, ptr %2, align 4
  call void @zend_register_long_constant(ptr noundef @.str.130, i64 noundef 17, i64 noundef 5, i32 noundef 1, i32 noundef %40)
  %41 = load i32, ptr %2, align 4
  call void @zend_register_long_constant(ptr noundef @.str.131, i64 noundef 25, i64 noundef 6, i32 noundef 1, i32 noundef %41)
  %42 = load i32, ptr %2, align 4
  call void @zend_register_long_constant(ptr noundef @.str.132, i64 noundef 17, i64 noundef 7, i32 noundef 1, i32 noundef %42)
  %43 = load i32, ptr %2, align 4
  call void @zend_register_long_constant(ptr noundef @.str.133, i64 noundef 23, i64 noundef 18, i32 noundef 1, i32 noundef %43)
  %44 = load i32, ptr %2, align 4
  call void @zend_register_long_constant(ptr noundef @.str.134, i64 noundef 20, i64 noundef 19, i32 noundef 1, i32 noundef %44)
  ret void
}

; Function Attrs: nounwind uwtable
define internal i32 @zm_startup_posix(i32 noundef %0, i32 noundef %1) #0 {
  %3 = alloca i32, align 4
  %4 = alloca i32, align 4
  store i32 %0, ptr %3, align 4
  store i32 %1, ptr %4, align 4
  %5 = load i32, ptr %4, align 4
  call void @register_posix_symbols(i32 noundef %5)
  ret i32 0
}