; Function Attrs: nounwind uwtable
define internal noundef i32 @zm_startup_posix(i32 %0, i32 noundef %1) #0 {
  tail call void @zend_register_long_constant(ptr noundef nonnull @.str.93, i64 noundef 10, i64 noundef 0, i32 noundef 1, i32 noundef %1) #11
  tail call void @zend_register_long_constant(ptr noundef nonnull @.str.94, i64 noundef 10, i64 noundef 1, i32 noundef 1, i32 noundef %1) #11
  tail call void @zend_register_long_constant(ptr noundef nonnull @.str.95, i64 noundef 10, i64 noundef 2, i32 noundef 1, i32 noundef %1) #11
  tail call void @zend_register_long_constant(ptr noundef nonnull @.str.96, i64 noundef 10, i64 noundef 4, i32 noundef 1, i32 noundef %1) #11
  tail call void @zend_register_long_constant(ptr noundef nonnull @.str.97, i64 noundef 13, i64 noundef 32768, i32 noundef 1, i32 noundef %1) #11
  tail call void @zend_register_long_constant(ptr noundef nonnull @.str.98, i64 noundef 13, i64 noundef 8192, i32 noundef 1, i32 noundef %1) #11
  tail call void @zend_register_long_constant(ptr noundef nonnull @.str.99, i64 noundef 13, i64 noundef 24576, i32 noundef 1, i32 noundef %1) #11
  tail call void @zend_register_long_constant(ptr noundef nonnull @.str.100, i64 noundef 13, i64 noundef 4096, i32 noundef 1, i32 noundef %1) #11
  tail call void @zend_register_long_constant(ptr noundef nonnull @.str.101, i64 noundef 14, i64 noundef 49152, i32 noundef 1, i32 noundef %1) #11
  tail call void @zend_register_long_constant(ptr noundef nonnull @.str.102, i64 noundef 15, i64 noundef 9, i32 noundef 1, i32 noundef %1) #11
  tail call void @zend_register_long_constant(ptr noundef nonnull @.str.103, i64 noundef 17, i64 noundef 4, i32 noundef 1, i32 noundef %1) #11
  tail call void @zend_register_long_constant(ptr noundef nonnull @.str.104, i64 noundef 16, i64 noundef 0, i32 noundef 1, i32 noundef %1) #11
  tail call void @zend_register_long_constant(ptr noundef nonnull @.str.105, i64 noundef 17, i64 noundef 2, i32 noundef 1, i32 noundef %1) #11
  tail call void @zend_register_long_constant(ptr noundef nonnull @.str.106, i64 noundef 18, i64 noundef 1, i32 noundef 1, i32 noundef %1) #11
  tail call void @zend_register_long_constant(ptr noundef nonnull @.str.107, i64 noundef 18, i64 noundef 10, i32 noundef 1, i32 noundef %1) #11
  tail call void @zend_register_long_constant(ptr noundef nonnull @.str.108, i64 noundef 20, i64 noundef 8, i32 noundef 1, i32 noundef %1) #11
  tail call void @zend_register_long_constant(ptr noundef nonnull @.str.109, i64 noundef 21, i64 noundef 12, i32 noundef 1, i32 noundef %1) #11
  tail call void @zend_register_long_constant(ptr noundef nonnull @.str.110, i64 noundef 17, i64 noundef 13, i32 noundef 1, i32 noundef %1) #11
  tail call void @zend_register_long_constant(ptr noundef nonnull @.str.111, i64 noundef 19, i64 noundef 7, i32 noundef 1, i32 noundef %1) #11
  tail call void @zend_register_long_constant(ptr noundef nonnull @.str.112, i64 noundef 18, i64 noundef 6, i32 noundef 1, i32 noundef %1) #11
  tail call void @zend_register_long_constant(ptr noundef nonnull @.str.113, i64 noundef 16, i64 noundef 5, i32 noundef 1, i32 noundef %1) #11
  tail call void @zend_register_long_constant(ptr noundef nonnull @.str.114, i64 noundef 19, i64 noundef 14, i32 noundef 1, i32 noundef %1) #11
  tail call void @zend_register_long_constant(ptr noundef nonnull @.str.115, i64 noundef 19, i64 noundef 15, i32 noundef 1, i32 noundef %1) #11
  tail call void @zend_register_long_constant(ptr noundef nonnull @.str.116, i64 noundef 23, i64 noundef 11, i32 noundef 1, i32 noundef %1) #11
  tail call void @zend_register_long_constant(ptr noundef nonnull @.str.117, i64 noundef 18, i64 noundef 3, i32 noundef 1, i32 noundef %1) #11
  tail call void @zend_register_long_constant(ptr noundef nonnull @.str.118, i64 noundef 21, i64 noundef -1, i32 noundef 1, i32 noundef %1) #11
  tail call void @zend_register_long_constant(ptr noundef nonnull @.str.119, i64 noundef 16, i64 noundef 0, i32 noundef 1, i32 noundef %1) #11
  tail call void @zend_register_long_constant(ptr noundef nonnull @.str.120, i64 noundef 18, i64 noundef 1, i32 noundef 1, i32 noundef %1) #11
  tail call void @zend_register_long_constant(ptr noundef nonnull @.str.121, i64 noundef 16, i64 noundef 2, i32 noundef 1, i32 noundef %1) #11
  tail call void @zend_register_long_constant(ptr noundef nonnull @.str.122, i64 noundef 17, i64 noundef 30, i32 noundef 1, i32 noundef %1) #11
  tail call void @zend_register_long_constant(ptr noundef nonnull @.str.123, i64 noundef 25, i64 noundef 83, i32 noundef 1, i32 noundef %1) #11
  tail call void @zend_register_long_constant(ptr noundef nonnull @.str.124, i64 noundef 25, i64 noundef 84, i32 noundef 1, i32 noundef %1) #11
  tail call void @zend_register_long_constant(ptr noundef nonnull @.str.125, i64 noundef 17, i64 noundef 0, i32 noundef 1, i32 noundef %1) #11
  tail call void @zend_register_long_constant(ptr noundef nonnull @.str.126, i64 noundef 18, i64 noundef 1, i32 noundef 1, i32 noundef %1) #11
  tail call void @zend_register_long_constant(ptr noundef nonnull @.str.127, i64 noundef 18, i64 noundef 2, i32 noundef 1, i32 noundef %1) #11
  tail call void @zend_register_long_constant(ptr noundef nonnull @.str.128, i64 noundef 17, i64 noundef 3, i32 noundef 1, i32 noundef %1) #11
  tail call void @zend_register_long_constant(ptr noundef nonnull @.str.129, i64 noundef 17, i64 noundef 4, i32 noundef 1, i32 noundef %1) #11
  tail call void @zend_register_long_constant(ptr noundef nonnull @.str.130, i64 noundef 17, i64 noundef 5, i32 noundef 1, i32 noundef %1) #11
  tail call void @zend_register_long_constant(ptr noundef nonnull @.str.131, i64 noundef 25, i64 noundef 6, i32 noundef 1, i32 noundef %1) #11
  tail call void @zend_register_long_constant(ptr noundef nonnull @.str.132, i64 noundef 17, i64 noundef 7, i32 noundef 1, i32 noundef %1) #11
  tail call void @zend_register_long_constant(ptr noundef nonnull @.str.133, i64 noundef 23, i64 noundef 18, i32 noundef 1, i32 noundef %1) #11
  tail call void @zend_register_long_constant(ptr noundef nonnull @.str.134, i64 noundef 20, i64 noundef 19, i32 noundef 1, i32 noundef %1) #11
  ret i32 0
}